target datalayout = "e-m:e-p270:32:32-p271:32:32-p272:64:64-i64:64-i128:128-f80:128-n8:16:32:64-S128"
target triple = "x86_64-pc-linux-gnu"

%struct._packet_info = type { ptr, ptr, i32, i32, %struct.nstime_t, %struct.nstime_t, %struct.nstime_t, i8, ptr, ptr, ptr, ptr, %struct._address, %struct._address, %struct._address, %struct._address, %struct._address, %struct._address, i32, ptr, i8, [3 x i8], %struct.anon, i32, i32, i32, i32, ptr, i8, ptr, ptr, i16, i16, i32, i32, i16, i32, i32, ptr, ptr, ptr, i8, i8, i16, i16, i16, i32, i16, i16, ptr, ptr, ptr, ptr, ptr, i32, i32 }
%struct.nstime_t = type { i64, i32 }
%struct._address = type { i32, i32, ptr, ptr }
%struct.anon = type { i8, [3 x i8] }

@hf_ssh_sftp_attrs_flags = internal global i32 0, align 4
@hf_ssh_sftp_attrs_size = internal global i32 0, align 4
@hf_ssh_sftp_attrs_uid = internal global i32 0, align 4
@hf_ssh_sftp_attrs_gid = internal global i32 0, align 4
@hf_ssh_sftp_attrs_permissions = internal global i32 0, align 4
@hf_ssh_sftp_attrs_atime = internal global i32 0, align 4
@hf_ssh_sftp_attrs_mtime = internal global i32 0, align 4
@hf_ssh_sftp_attrs_extended_count = internal global i32 0, align 4
@ett_sftp_attrs = internal global i32 0, align 4
@.str.119 = private unnamed_addr constant [16 x i8] c"SFTP attributes\00", align 1
@.str.120 = private unnamed_addr constant [3 x i8] c"%s\00", align 1

; Function Attrs: null_pointer_is_valid sspstrong uwtable
define internal i32 @dissect_sftp_attrs(ptr noundef %0, ptr noundef %1, i32 noundef %2, ptr noundef %3) #0 {
  %5 = alloca ptr, align 8
  %6 = alloca ptr, align 8
  %7 = alloca i32, align 4
  %8 = alloca ptr, align 8
  %9 = alloca ptr, align 8
  %10 = alloca ptr, align 8
  %11 = alloca i32, align 4
  %12 = alloca i32, align 4
  store ptr %0, ptr %5, align 8
  store ptr %1, ptr %6, align 8
  store i32 %2, ptr %7, align 4
  store ptr %3, ptr %8, align 8
  call void @llvm.lifetime.start.p0(i64 8, ptr %9) #3
  %13 = load ptr, ptr %6, align 8
  %14 = getelementptr inbounds nuw %struct._packet_info, ptr %13, i32 0, i32 51
  %15 = load ptr, ptr %14, align 8
  %16 = call noalias ptr @wmem_strbuf_new(ptr noundef %15, ptr noundef @.str.119)
  store ptr %16, ptr %9, align 8
  call void @llvm.lifetime.start.p0(i64 8, ptr %10) #3
  %17 = load ptr, ptr %8, align 8
  %18 = load ptr, ptr %5, align 8
  %19 = load i32, ptr %7, align 4
  %20 = load i32, ptr @ett_sftp_attrs, align 4
  %21 = call ptr @proto_tree_add_subtree(ptr noundef %17, ptr noundef %18, i32 noundef %19, i32 noundef -1, i32 noundef %20, ptr noundef null, ptr noundef null)
  store ptr %21, ptr %10, align 8
  call void @llvm.lifetime.start.p0(i64 4, ptr %11) #3
  %22 = load i32, ptr %7, align 4
  store i32 %22, ptr %11, align 4
  call void @llvm.lifetime.start.p0(i64 4, ptr %12) #3
  %23 = load ptr, ptr %5, align 8
  %24 = load i32, ptr %7, align 4
  %25 = call i32 @tvb_get_ntohl(ptr noundef %23, i32 noundef %24)
  store i32 %25, ptr %12, align 4
  %26 = load ptr, ptr %10, align 8
  %27 = load i32, ptr @hf_ssh_sftp_attrs_flags, align 4
  %28 = load ptr, ptr %5, align 8
  %29 = load i32, ptr %7, align 4
  %30 = call ptr @proto_tree_add_item(ptr noundef %26, i32 noundef %27, ptr noundef %28, i32 noundef %29, i32 noundef 4, i32 noundef 0)
  %31 = load i32, ptr %7, align 4
  %32 = add i32 %31, 4
  store i32 %32, ptr %7, align 4
  %33 = load i32, ptr %12, align 4
  %34 = and i32 %33, 1
  %35 = icmp ne i32 %34, 0
  br i1 %35, label %36, label %44

36:                                               ; preds = %4
  %37 = load ptr, ptr %10, align 8
  %38 = load i32, ptr @hf_ssh_sftp_attrs_size, align 4
  %39 = load ptr, ptr %5, align 8
  %40 = load i32, ptr %7, align 4
  %41 = call ptr @proto_tree_add_item(ptr noundef %37, i32 noundef %38, ptr noundef %39, i32 noundef %40, i32 noundef 8, i32 noundef 0)
  %42 = load i32, ptr %7, align 4
  %43 = add i32 %42, 8
  store i32 %43, ptr %7, align 4
  br label %44

44:                                               ; preds = %36, %4
  %45 = load i32, ptr %12, align 4
  %46 = and i32 %45, 2
  %47 = icmp ne i32 %46, 0
  br i1 %47, label %48, label %56

48:                                               ; preds = %44
  %49 = load ptr, ptr %10, align 8
  %50 = load i32, ptr @hf_ssh_sftp_attrs_uid, align 4
  %51 = load ptr, ptr %5, align 8
  %52 = load i32, ptr %7, align 4
  %53 = call ptr @proto_tree_add_item(ptr noundef %49, i32 noundef %50, ptr noundef %51, i32 noundef %52, i32 noundef 4, i32 noundef 0)
  %54 = load i32, ptr %7, align 4
  %55 = add i32 %54, 4
  store i32 %55, ptr %7, align 4
  br label %56

56:                                               ; preds = %48, %44
  %57 = load i32, ptr %12, align 4
  %58 = and i32 %57, 2
  %59 = icmp ne i32 %58, 0
  br i1 %59, label %60, label %68

60:                                               ; preds = %56
  %61 = load ptr, ptr %10, align 8
  %62 = load i32, ptr @hf_ssh_sftp_attrs_gid, align 4
  %63 = load ptr, ptr %5, align 8
  %64 = load i32, ptr %7, align 4
  %65 = call ptr @proto_tree_add_item(ptr noundef %61, i32 noundef %62, ptr noundef %63, i32 noundef %64, i32 noundef 4, i32 noundef 0)
  %66 = load i32, ptr %7, align 4
  %67 = add i32 %66, 4
  store i32 %67, ptr %7, align 4
  br label %68

68:                                               ; preds = %60, %56
  %69 = load i32, ptr %12, align 4
  %70 = and i32 %69, 4
  %71 = icmp ne i32 %70, 0
  br i1 %71, label %72, label %80

72:                                               ; preds = %68
  %73 = load ptr, ptr %10, align 8
  %74 = load i32, ptr @hf_ssh_sftp_attrs_permissions, align 4
  %75 = load ptr, ptr %5, align 8
  %76 = load i32, ptr %7, align 4
  %77 = call ptr @proto_tree_add_item(ptr noundef %73, i32 noundef %74, ptr noundef %75, i32 noundef %76, i32 noundef 4, i32 noundef 0)
  %78 = load i32, ptr %7, align 4
  %79 = add i32 %78, 4
  store i32 %79, ptr %7, align 4
  br label %80

80:                                               ; preds = %72, %68
  %81 = load i32, ptr %12, align 4
  %82 = and i32 %81, 8
  %83 = icmp ne i32 %82, 0
  br i1 %83, label %84, label %92

84:                                               ; preds = %80
  %85 = load ptr, ptr %10, align 8
  %86 = load i32, ptr @hf_ssh_sftp_attrs_atime, align 4
  %87 = load ptr, ptr %5, align 8
  %88 = load i32, ptr %7, align 4
  %89 = call ptr @proto_tree_add_item(ptr noundef %85, i32 noundef %86, ptr noundef %87, i32 noundef %88, i32 noundef 4, i32 noundef 18)
  %90 = load i32, ptr %7, align 4
  %91 = add i32 %90, 4
  store i32 %91, ptr %7, align 4
  br label %92

92:                                               ; preds = %84, %80
  %93 = load i32, ptr %12, align 4
  %94 = and i32 %93, 8
  %95 = icmp ne i32 %94, 0
  br i1 %95, label %96, label %104

96:                                               ; preds = %92
  %97 = load ptr, ptr %10, align 8
  %98 = load i32, ptr @hf_ssh_sftp_attrs_mtime, align 4
  %99 = load ptr, ptr %5, align 8
  %100 = load i32, ptr %7, align 4
  %101 = call ptr @proto_tree_add_item(ptr noundef %97, i32 noundef %98, ptr noundef %99, i32 noundef %100, i32 noundef 4, i32 noundef 18)
  %102 = load i32, ptr %7, align 4
  %103 = add i32 %102, 4
  store i32 %103, ptr %7, align 4
  br label %104

104:                                              ; preds = %96, %92
  %105 = load i32, ptr %12, align 4
  %106 = and i32 %105, -2147483648
  %107 = icmp ne i32 %106, 0
  br i1 %107, label %108, label %116

108:                                              ; preds = %104
  %109 = load ptr, ptr %10, align 8
  %110 = load i32, ptr @hf_ssh_sftp_attrs_extended_count, align 4
  %111 = load ptr, ptr %5, align 8
  %112 = load i32, ptr %7, align 4
  %113 = call ptr @proto_tree_add_item(ptr noundef %109, i32 noundef %110, ptr noundef %111, i32 noundef %112, i32 noundef 4, i32 noundef 0)
  %114 = load i32, ptr %7, align 4
  %115 = add i32 %114, 4
  store i32 %115, ptr %7, align 4
  br label %116

116:                                              ; preds = %108, %104
  %117 = load ptr, ptr %10, align 8
  %118 = load ptr, ptr %9, align 8
  %119 = call ptr @wmem_strbuf_get_str(ptr noundef %118)
  call void (ptr, ptr, ...) @proto_item_set_text(ptr noundef %117, ptr noundef @.str.120, ptr noundef %119)
  %120 = load ptr, ptr %10, align 8
  %121 = load i32, ptr %7, align 4
  %122 = load i32, ptr %11, align 4
  %123 = sub i32 %121, %122
  call void @proto_item_set_len(ptr noundef %120, i32 noundef %123)
  %124 = load i32, ptr %7, align 4
  %125 = load i32, ptr %11, align 4
  %126 = sub i32 %124, %125
  call void @llvm.lifetime.end.p0(i64 4, ptr %12) #3
  call void @llvm.lifetime.end.p0(i64 4, ptr %11) #3
  call void @llvm.lifetime.end.p0(i64 8, ptr %10) #3
  call void @llvm.lifetime.end.p0(i64 8, ptr %9) #3
  ret i32 %126
}