; Function Attrs: null_pointer_is_valid sspstrong uwtable
define internal fastcc noundef i32 @dissect_sftp_attrs(ptr noundef %0, ptr %.408.val, i32 noundef %1, ptr noundef %2) unnamed_addr #0 {
  %4 = tail call noalias ptr @wmem_strbuf_new(ptr noundef %.408.val, ptr noundef nonnull @.str.119)
  %5 = load i32, ptr @ett_sftp_attrs, align 4
  %6 = tail call ptr @proto_tree_add_subtree(ptr noundef %2, ptr noundef %0, i32 noundef %1, i32 noundef -1, i32 noundef %5, ptr noundef null, ptr noundef null)
  %7 = tail call i32 @tvb_get_ntohl(ptr noundef %0, i32 noundef %1)
  %8 = load i32, ptr @hf_ssh_sftp_attrs_flags, align 4
  %9 = tail call ptr @proto_tree_add_item(ptr noundef %6, i32 noundef %8, ptr noundef %0, i32 noundef %1, i32 noundef 4, i32 noundef 0)
  %10 = add i32 %1, 4
  %11 = and i32 %7, 1
  %.not = icmp eq i32 %11, 0
  br i1 %.not, label %16, label %12

12:                                               ; preds = %3
  %13 = load i32, ptr @hf_ssh_sftp_attrs_size, align 4
  %14 = tail call ptr @proto_tree_add_item(ptr noundef %6, i32 noundef %13, ptr noundef %0, i32 noundef %10, i32 noundef 8, i32 noundef 0)
  %15 = add i32 %1, 12
  br label %16

16:                                               ; preds = %12, %3
  %.0 = phi i32 [ %15, %12 ], [ %10, %3 ]
  %17 = and i32 %7, 2
  %.not52 = icmp eq i32 %17, 0
  br i1 %.not52, label %.thread, label %18

18:                                               ; preds = %16
  %19 = load i32, ptr @hf_ssh_sftp_attrs_uid, align 4
  %20 = tail call ptr @proto_tree_add_item(ptr noundef %6, i32 noundef %19, ptr noundef %0, i32 noundef %.0, i32 noundef 4, i32 noundef 0)
  %21 = add i32 %.0, 4
  %22 = load i32, ptr @hf_ssh_sftp_attrs_gid, align 4
  %23 = tail call ptr @proto_tree_add_item(ptr noundef %6, i32 noundef %22, ptr noundef %0, i32 noundef %21, i32 noundef 4, i32 noundef 0)
  %24 = add i32 %.0, 8
  br label %.thread

.thread:                                          ; preds = %16, %18
  %.2 = phi i32 [ %24, %18 ], [ %.0, %16 ]
  %25 = and i32 %7, 4
  %.not53 = icmp eq i32 %25, 0
  br i1 %.not53, label %30, label %26

26:                                               ; preds = %.thread
  %27 = load i32, ptr @hf_ssh_sftp_attrs_permissions, align 4
  %28 = tail call ptr @proto_tree_add_item(ptr noundef %6, i32 noundef %27, ptr noundef %0, i32 noundef %.2, i32 noundef 4, i32 noundef 0)
  %29 = add i32 %.2, 4
  br label %30

30:                                               ; preds = %26, %.thread
  %.3 = phi i32 [ %29, %26 ], [ %.2, %.thread ]
  %31 = and i32 %7, 8
  %.not54 = icmp eq i32 %31, 0
  br i1 %.not54, label %.thread2, label %32

32:                                               ; preds = %30
  %33 = load i32, ptr @hf_ssh_sftp_attrs_atime, align 4
  %34 = tail call ptr @proto_tree_add_item(ptr noundef %6, i32 noundef %33, ptr noundef %0, i32 noundef %.3, i32 noundef 4, i32 noundef 18)
  %35 = add i32 %.3, 4
  %36 = load i32, ptr @hf_ssh_sftp_attrs_mtime, align 4
  %37 = tail call ptr @proto_tree_add_item(ptr noundef %6, i32 noundef %36, ptr noundef %0, i32 noundef %35, i32 noundef 4, i32 noundef 18)
  %38 = add i32 %.3, 8
  br label %.thread2

.thread2:                                         ; preds = %30, %32
  %.5 = phi i32 [ %38, %32 ], [ %.3, %30 ]
  %.not55 = icmp sgt i32 %7, -1
  br i1 %.not55, label %43, label %39

39:                                               ; preds = %.thread2
  %40 = load i32, ptr @hf_ssh_sftp_attrs_extended_count, align 4
  %41 = tail call ptr @proto_tree_add_item(ptr noundef %6, i32 noundef %40, ptr noundef %0, i32 noundef %.5, i32 noundef 4, i32 noundef 0)
  %42 = add i32 %.5, 4
  br label %43

43:                                               ; preds = %39, %.thread2
  %.6 = phi i32 [ %42, %39 ], [ %.5, %.thread2 ]
  %44 = tail call ptr @wmem_strbuf_get_str(ptr noundef %4)
  tail call void (ptr, ptr, ...) @proto_item_set_text(ptr noundef %6, ptr noundef nonnull @.str.120, ptr noundef %44)
  %45 = sub i32 %.6, %1
  tail call void @proto_item_set_len(ptr noundef %6, i32 noundef %45)
  ret i32 %45
}